ccopy_reg
_reconstructor
p1
(cdebian_linux.config
ConfigCore
p2
c__builtin__
dict
p3
(dp4
(S'image'
S'amd64'
p5
tp6
(dp7
S'suggests'
p8
S'grub2 | grub-gfxboot | grub-legacy, crda'
p9
sS'configs'
p10
(lp11
S'kernelarch-x86/config-arch-64'
p12
ass(S'image'
g5
NS'photonic-amd64'
tp13
(dp14
S'configs'
p15
(lp16
S'kernelarch-x86/config-arch-64'
p17
ass(S'base'
p18
g5
S'none'
p19
tp20
(dp21
S'implicit-flavour'
p22
I01
sS'flavours'
p23
(lp24
S'photonic-amd64'
p25
ass(S'commands-image-initramfs-generators'
p26
tp27
(dp28
S'initramfs-tools'
p29
S'update-initramfs'
p30
ss(S'base'
g5
tp31
(dp32
S'kernel-arch'
p33
S'x86'
p34
sS'featuresets'
p35
(lp36
g19
ass(S'image'
p37
tp38
(dp39
S'initramfs-generators'
p40
(lp41
S'initramfs-tools'
p42
aS'initramfs-fallback'
p43
asS'type'
p44
S'plain'
p45
ss(S'version'
p46
tp47
(dp48
S'abiname'
p49
S'3.12-1nano'
p50
sS'source'
p51
V3.12-1
p52
ss(S'base'
p53
S'i386'
p54
tp55
(dp56
S'kernel-arch'
p57
S'x86'
p58
sg35
(lp59
g19
ass(S'image'
g54
NS'photonic-686'
tp60
(dp61
S'configs'
p62
(lp63
S'kernelarch-x86/config-arch-32'
p64
ass(S'abi'
p65
tp66
(dp67
S'abiname'
p68
S'1nano'
p69
ss(S'image'
p70
g54
tp71
(dp72
S'suggests'
p73
S'grub2 | grub-gfxboot | grub-legacy, crda'
p74
sS'configs'
p75
(lp76
S'kernelarch-x86/config-arch-32'
p77
ass(g18
g54
g19
tp78
(dp79
g22
I01
sg23
(lp80
S'photonic-686'
p81
ass(S'description'
g5
NS'photonic-amd64'
tp82
(dp83
S'hardware'
p84
S'64-bit PCs'
p85
sS'hardware-long'
p86
S'PCs with AMD64 or Intel 64 processors'
p87
ss(S'description'
g54
NS'photonic-686'
tp88
(dp89
S'hardware'
p90
S'modern PCs'
p91
sS'hardware-long'
p92
S'PCs with Intel Pentium Pro/II/III/4/4M/D/M, Xeon, Celeron, Core or Atom; AMD K6, Geode LX/NX, Athlon (K7), Duron, Opteron, Sempron, Turion or Phenom; Transmeta Efficeon; VIA C3 "Nehemiah" or C7 processors'
p93
ss(S'base'
p94
tp95
(dp96
S'arches'
p97
(lp98
S'amd64'
p99
aS'i386'
p100
asS'featuresets'
p101
(lp102
S'none'
p103
asS'compiler'
p104
S'gcc-4.8'
p105
ss(S'relations'
p106
tp107
(dp108
S'initramfs-fallback'
p109
S'linux-initramfs-tool'
p110
sS'gcc-4.8'
p111
S'gcc-4.8'
p112
sS'initramfs-tools'
p113
S'initramfs-tools'
p114
sstRp115
.